; Function Attrs: nounwind uwtable
define ptr @l_Lean_Grind_CommRing_Mon_denoteExpr_go___rarg___lambda__2(ptr noundef %0, ptr noundef %1, ptr noundef %2, ptr noundef %3, ptr noundef %4, ptr noundef %5, ptr noundef %6) #0 {
  %8 = ptrtoint ptr %1 to i64
  %9 = and i64 %8, 1
  %.not = icmp eq i64 %9, 0
  br i1 %.not, label %10, label %lean_inc.exit19

10:                                               ; preds = %7
  %.val.i = load i32, ptr %1, align 4, !tbaa !6
  %11 = icmp sgt i32 %.val.i, 0
  br i1 %11, label %12, label %14, !prof !5

12:                                               ; preds = %10
  %13 = add nuw i32 %.val.i, 1
  store i32 %13, ptr %1, align 4, !tbaa !6
  br label %lean_inc.exit19

14:                                               ; preds = %10
  %.not.i = icmp eq i32 %.val.i, 0
  br i1 %.not.i, label %lean_inc.exit19, label %15

15:                                               ; preds = %14
  tail call void @lean_inc_ref_cold(ptr noundef nonnull %1) #3
  br label %lean_inc.exit19

lean_inc.exit19:                                  ; preds = %15, %14, %12, %7
  %16 = ptrtoint ptr %0 to i64
  %17 = and i64 %16, 1
  %.not23 = icmp eq i64 %17, 0
  br i1 %.not23, label %18, label %lean_inc.exit

18:                                               ; preds = %lean_inc.exit19
  %.val.i20 = load i32, ptr %0, align 4, !tbaa !6
  %19 = icmp sgt i32 %.val.i20, 0
  br i1 %19, label %20, label %22, !prof !5

20:                                               ; preds = %18
  %21 = add nuw i32 %.val.i20, 1
  store i32 %21, ptr %0, align 4, !tbaa !6
  br label %lean_inc.exit

22:                                               ; preds = %18
  %.not.i21 = icmp eq i32 %.val.i20, 0
  br i1 %.not.i21, label %lean_inc.exit, label %23

23:                                               ; preds = %22
  tail call void @lean_inc_ref_cold(ptr noundef nonnull %0) #3
  br label %lean_inc.exit

lean_inc.exit:                                    ; preds = %23, %22, %20, %lean_inc.exit19
  %24 = tail call ptr @l_Lean_Grind_CommRing_Power_denoteExpr___rarg(ptr noundef %0, ptr noundef %1, ptr noundef %2)
  tail call void @lean_inc_heartbeat() #3
  %25 = tail call noalias ptr @mi_malloc_small(i64 noundef 64) #3
  %26 = icmp eq ptr %25, null
  br i1 %26, label %27, label %lean_alloc_closure.exit

27:                                               ; preds = %lean_inc.exit
  tail call void @lean_internal_panic_out_of_memory() #4
  unreachable

lean_alloc_closure.exit:                          ; preds = %lean_inc.exit
  %28 = getelementptr inbounds nuw i8, ptr %25, i64 4
  store i32 1, ptr %25, align 4, !tbaa !6
  store i32 -184549312, ptr %28, align 4
  %29 = getelementptr inbounds nuw i8, ptr %25, i64 8
  store ptr @l_Lean_Grind_CommRing_Mon_denoteExpr_go___rarg___lambda__1, ptr %29, align 8, !tbaa !11
  %30 = getelementptr inbounds nuw i8, ptr %25, i64 16
  store i16 6, ptr %30, align 8, !tbaa !13
  %31 = getelementptr inbounds nuw i8, ptr %25, i64 18
  store i16 5, ptr %31, align 2, !tbaa !13
  %32 = getelementptr inbounds nuw i8, ptr %25, i64 24
  store ptr %6, ptr %32, align 8, !tbaa !11
  %33 = getelementptr inbounds nuw i8, ptr %25, i64 32
  store ptr %3, ptr %33, align 8, !tbaa !11
  %34 = getelementptr inbounds nuw i8, ptr %25, i64 40
  store ptr %0, ptr %34, align 8, !tbaa !11
  %35 = getelementptr inbounds nuw i8, ptr %25, i64 48
  store ptr %1, ptr %35, align 8, !tbaa !11
  %36 = getelementptr inbounds nuw i8, ptr %25, i64 56
  store ptr %4, ptr %36, align 8, !tbaa !11
  %37 = tail call ptr @lean_apply_4(ptr noundef %5, ptr noundef nonnull inttoptr (i64 1 to ptr), ptr noundef nonnull inttoptr (i64 1 to ptr), ptr noundef %24, ptr noundef nonnull %25) #3
  ret ptr %37
}